target datalayout = "e-m:e-p270:32:32-p271:32:32-p272:64:64-i64:64-i128:128-f80:128-n8:16:32:64-S128"
target triple = "x86_64-pc-linux-gnu"

%struct.Vec_Int_t_ = type { i32, i32, ptr }
%struct.Gia_Man_t_ = type { ptr, ptr, i32, i32, i32, i32, ptr, ptr, i32, i32, i32, ptr, ptr, %struct.Vec_Int_t_, %struct.Vec_Int_t_, i32, i32, i32, %struct.Vec_Int_t_, ptr, ptr, ptr, i32, i32, i32, i32, ptr, ptr, ptr, ptr, ptr, i32, i32, ptr, i32, ptr, ptr, ptr, ptr, ptr, ptr, ptr, ptr, ptr, ptr, ptr, ptr, ptr, ptr, ptr, ptr, ptr, ptr, %struct.Vec_Int_t_, %struct.Vec_Int_t_, ptr, ptr, ptr, ptr, ptr, ptr, ptr, ptr, ptr, ptr, ptr, ptr, ptr, ptr, ptr, ptr, ptr, ptr, ptr, ptr, ptr, i32, float, float, ptr, ptr, i32, ptr, ptr, ptr, ptr, ptr, ptr, ptr, ptr, ptr, ptr, ptr, ptr, ptr, ptr, ptr, i64, i64, ptr, ptr, i32, i32, i32, i32, i32, i32, i32, i32, i32, i32, i32, i32, ptr, ptr, ptr, ptr, ptr, ptr, ptr, ptr, i32, i32, i32, ptr, i32, i32, ptr, ptr, ptr, ptr, ptr, ptr, i32, i32, ptr, %struct.Vec_Int_t_, %struct.Vec_Int_t_, %struct.Vec_Int_t_, ptr, ptr, ptr }
%struct.Ga2_Man_t_ = type { ptr, ptr, ptr, ptr, ptr, ptr, ptr, i32, i32, i32, i32, i32, ptr, ptr, ptr, i32, i32, i32, i32, ptr, i32, i32, i32, i32, ptr, ptr, ptr, ptr, i64, i64, i64, i64, i64, i64 }
%struct.Abs_Par_t_ = type { i32, i32, i32, i32, i32, i32, i32, i32, i32, i32, i32, i32, i32, i32, i32, i32, i32, i32, i32, i32, i32, i32, i32, i32, i32, ptr, i32, i32, i32, i32, i32, i32 }

@Ga2_GlaGetFileName.pFileNameDef = internal global ptr @.str.46, align 8
@.str.47 = private unnamed_addr constant [9 x i8] c"_abs.aig\00", align 1
@.str.48 = private unnamed_addr constant [9 x i8] c"_gla.aig\00", align 1

; Function Attrs: nounwind uwtable
define ptr @Ga2_GlaGetFileName(ptr noundef %0, i32 noundef %1) #0 {
  %3 = alloca ptr, align 8
  %4 = alloca ptr, align 8
  %5 = alloca i32, align 4
  store ptr %0, ptr %4, align 8
  store i32 %1, ptr %5, align 4
  %6 = load ptr, ptr %4, align 8
  %7 = getelementptr inbounds %struct.Ga2_Man_t_, ptr %6, i32 0, i32 1
  %8 = load ptr, ptr %7, align 8
  %9 = getelementptr inbounds %struct.Abs_Par_t_, ptr %8, i32 0, i32 25
  %10 = load ptr, ptr %9, align 8
  %11 = icmp ne ptr %10, null
  br i1 %11, label %12, label %18

12:                                               ; preds = %2
  %13 = load ptr, ptr %4, align 8
  %14 = getelementptr inbounds %struct.Ga2_Man_t_, ptr %13, i32 0, i32 1
  %15 = load ptr, ptr %14, align 8
  %16 = getelementptr inbounds %struct.Abs_Par_t_, ptr %15, i32 0, i32 25
  %17 = load ptr, ptr %16, align 8
  store ptr %17, ptr %3, align 8
  br label %44

18:                                               ; preds = %2
  %19 = load ptr, ptr %4, align 8
  %20 = getelementptr inbounds %struct.Ga2_Man_t_, ptr %19, i32 0, i32 0
  %21 = load ptr, ptr %20, align 8
  %22 = getelementptr inbounds %struct.Gia_Man_t_, ptr %21, i32 0, i32 1
  %23 = load ptr, ptr %22, align 8
  %24 = icmp ne ptr %23, null
  br i1 %24, label %25, label %42

25:                                               ; preds = %18
  %26 = load i32, ptr %5, align 4
  %27 = icmp ne i32 %26, 0
  br i1 %27, label %28, label %35

28:                                               ; preds = %25
  %29 = load ptr, ptr %4, align 8
  %30 = getelementptr inbounds %struct.Ga2_Man_t_, ptr %29, i32 0, i32 0
  %31 = load ptr, ptr %30, align 8
  %32 = getelementptr inbounds %struct.Gia_Man_t_, ptr %31, i32 0, i32 1
  %33 = load ptr, ptr %32, align 8
  %34 = call ptr @Extra_FileNameGenericAppend(ptr noundef %33, ptr noundef @.str.47)
  store ptr %34, ptr %3, align 8
  br label %44

35:                                               ; preds = %25
  %36 = load ptr, ptr %4, align 8
  %37 = getelementptr inbounds %struct.Ga2_Man_t_, ptr %36, i32 0, i32 0
  %38 = load ptr, ptr %37, align 8
  %39 = getelementptr inbounds %struct.Gia_Man_t_, ptr %38, i32 0, i32 1
  %40 = load ptr, ptr %39, align 8
  %41 = call ptr @Extra_FileNameGenericAppend(ptr noundef %40, ptr noundef @.str.48)
  store ptr %41, ptr %3, align 8
  br label %44

42:                                               ; preds = %18
  %43 = load ptr, ptr @Ga2_GlaGetFileName.pFileNameDef, align 8
  store ptr %43, ptr %3, align 8
  br label %44

44:                                               ; preds = %42, %35, %28, %12
  %45 = load ptr, ptr %3, align 8
  ret ptr %45
}