; Function Attrs: nounwind uwtable
define ptr @Ga2_GlaGetFileName(ptr noundef readonly captures(none) %0, i32 noundef %1) local_unnamed_addr #4 {
  %3 = getelementptr inbounds nuw i8, ptr %0, i64 8
  %4 = load ptr, ptr %3, align 8
  %5 = getelementptr inbounds nuw i8, ptr %4, i64 104
  %6 = load ptr, ptr %5, align 8
  %.not = icmp eq ptr %6, null
  br i1 %.not, label %7, label %12

7:                                                ; preds = %2
  %8 = load ptr, ptr %0, align 8
  %9 = getelementptr inbounds nuw i8, ptr %8, i64 8
  %10 = load ptr, ptr %9, align 8
  %.not8 = icmp eq ptr %10, null
  br i1 %.not8, label %12, label %.sink.split

.sink.split:                                      ; preds = %7
  %.not9 = icmp eq i32 %1, 0
  %.str.48..str.47 = select i1 %.not9, ptr @.str.48, ptr @.str.47
  %11 = tail call ptr @Extra_FileNameGenericAppend(ptr noundef nonnull %10, ptr noundef nonnull %.str.48..str.47) #28
  br label %12

12:                                               ; preds = %.sink.split, %7, %2
  %.0 = phi ptr [ %6, %2 ], [ @.str.46, %7 ], [ %11, %.sink.split ]
  ret ptr %.0
}